target datalayout = "e-m:e-p270:32:32-p271:32:32-p272:64:64-i64:64-i128:128-f80:128-n8:16:32:64-S128"
target triple = "x86_64-pc-linux-gnu"

@.str = private unnamed_addr constant [24 x i8] c"11 4 22 44 44 22 444444\00", align 1

; Function Attrs: mustprogress uwtable
define hidden i32 @stbi_write_bmp(ptr noundef %0, i32 noundef %1, i32 noundef %2, i32 noundef %3, ptr noundef %4) #4 {
  %6 = alloca ptr, align 8
  %7 = alloca i32, align 4
  %8 = alloca i32, align 4
  %9 = alloca i32, align 4
  %10 = alloca ptr, align 8
  %11 = alloca i32, align 4
  store ptr %0, ptr %6, align 8
  store i32 %1, ptr %7, align 4
  store i32 %2, ptr %8, align 4
  store i32 %3, ptr %9, align 4
  store ptr %4, ptr %10, align 8
  %12 = load i32, ptr %7, align 4
  %13 = sub nsw i32 0, %12
  %14 = mul nsw i32 %13, 3
  %15 = and i32 %14, 3
  store i32 %15, ptr %11, align 4
  %16 = load ptr, ptr %6, align 8
  %17 = load i32, ptr %7, align 4
  %18 = load i32, ptr %8, align 4
  %19 = load i32, ptr %9, align 4
  %20 = load ptr, ptr %10, align 8
  %21 = load i32, ptr %11, align 4
  %22 = load i32, ptr %7, align 4
  %23 = mul nsw i32 %22, 3
  %24 = load i32, ptr %11, align 4
  %25 = add nsw i32 %23, %24
  %26 = load i32, ptr %8, align 4
  %27 = mul nsw i32 %25, %26
  %28 = add nsw i32 54, %27
  %29 = load i32, ptr %7, align 4
  %30 = load i32, ptr %8, align 4
  %31 = call noundef i32 (ptr, i32, i32, i32, i32, i32, ptr, i32, i32, ptr, ...) @_ZL7outfilePKciiiiiPviiS0_z(ptr noundef %16, i32 noundef -1, i32 noundef -1, i32 noundef %17, i32 noundef %18, i32 noundef %19, ptr noundef %20, i32 noundef 0, i32 noundef %21, ptr noundef @.str, i32 noundef 66, i32 noundef 77, i32 noundef %28, i32 noundef 0, i32 noundef 0, i32 noundef 54, i32 noundef 40, i32 noundef %29, i32 noundef %30, i32 noundef 1, i32 noundef 24, i32 noundef 0, i32 noundef 0, i32 noundef 0, i32 noundef 0, i32 noundef 0, i32 noundef 0)
  ret i32 %31
}