; Function Attrs: mustprogress nofree nounwind uwtable
define hidden noundef i32 @stbi_write_bmp(ptr nocapture noundef readonly %0, i32 noundef %1, i32 noundef %2, i32 noundef %3, ptr nocapture noundef readonly %4) local_unnamed_addr #3 {
  %6 = and i32 %1, 3
  %7 = mul nsw i32 %1, 3
  %8 = add nsw i32 %7, %6
  %9 = mul nsw i32 %8, %2
  %10 = add nsw i32 %9, 54
  %11 = tail call noundef i32 (ptr, i32, i32, i32, i32, i32, ptr, i32, i32, ptr, ...) @_ZL7outfilePKciiiiiPviiS0_z(ptr noundef %0, i32 poison, i32 poison, i32 noundef %1, i32 noundef %2, i32 noundef %3, ptr noundef %4, i32 noundef 0, i32 noundef %6, ptr noundef nonnull @.str, i32 noundef 66, i32 noundef 77, i32 noundef %10, i32 noundef 0, i32 noundef 0, i32 noundef 54, i32 noundef 40, i32 noundef %1, i32 noundef %2, i32 noundef 1, i32 noundef 24, i32 noundef 0, i32 noundef 0, i32 noundef 0, i32 noundef 0, i32 noundef 0, i32 noundef 0), !range !5
  ret i32 %11
}